; ModuleID = '10/1079.c'
source_filename = "10/1079.c"
target datalayout = "e-m:e-p270:32:32-p271:32:32-p272:64:64-i64:64-f80:128-n8:16:32:64-S128"
target triple = "x86_64-pc-linux-gnu"

@.str = private unnamed_addr constant [3 x i8] c"%d\00", align 1

; Function Attrs: noinline nounwind uwtable
define dso_local i32 @main() #0 {
  %1 = alloca i32, align 4
  %2 = alloca i32, align 4
  %3 = alloca i8*, align 8
  %4 = alloca i64, align 8
  %5 = alloca i64, align 8
  %6 = alloca i32, align 4
  %7 = alloca i32, align 4
  %8 = alloca i32, align 4
  store i32 0, i32* %1, align 4
  %9 = call i32 (i8*, ...) @__isoc99_scanf(i8* getelementptr inbounds ([3 x i8], [3 x i8]* @.str, i64 0, i64 0), i32* %2)
  %10 = load i32, i32* %2, align 4
  %11 = zext i32 %10 to i64
  %12 = call i8* @llvm.stacksave()
  store i8* %12, i8** %3, align 8
  %13 = alloca i32, i64 %11, align 16
  store i64 %11, i64* %4, align 8
  %14 = load i32, i32* %2, align 4
  %15 = zext i32 %14 to i64
  %16 = alloca i32, i64 %15, align 16
  store i64 %15, i64* %5, align 8
  store i32 0, i32* %6, align 4
  br label %17

17:                                               ; preds = %29, %0
  %18 = load i32, i32* %6, align 4
  %19 = load i32, i32* %2, align 4
  %20 = icmp slt i32 %18, %19
  br i1 %20, label %21, label %32

21:                                               ; preds = %17
  %22 = load i32, i32* %6, align 4
  %23 = sext i32 %22 to i64
  %24 = getelementptr inbounds i32, i32* %13, i64 %23
  %25 = call i32 (i8*, ...) @__isoc99_scanf(i8* getelementptr inbounds ([3 x i8], [3 x i8]* @.str, i64 0, i64 0), i32* %24)
  %26 = load i32, i32* %6, align 4
  %27 = sext i32 %26 to i64
  %28 = getelementptr inbounds i32, i32* %16, i64 %27
  store i32 1, i32* %28, align 4
  br label %29

29:                                               ; preds = %21
  %30 = load i32, i32* %6, align 4
  %31 = add nsw i32 %30, 1
  store i32 %31, i32* %6, align 4
  br label %17

32:                                               ; preds = %17
  store i32 0, i32* %8, align 4
  store i32 0, i32* %6, align 4
  br label %33

33:                                               ; preds = %88, %32
  %34 = load i32, i32* %6, align 4
  %35 = load i32, i32* %2, align 4
  %36 = icmp slt i32 %34, %35
  br i1 %36, label %37, label %91

37:                                               ; preds = %33
  store i32 0, i32* %7, align 4
  br label %38

38:                                               ; preds = %72, %37
  %39 = load i32, i32* %7, align 4
  %40 = load i32, i32* %6, align 4
  %41 = icmp slt i32 %39, %40
  br i1 %41, label %42, label %75

42:                                               ; preds = %38
  %43 = load i32, i32* %7, align 4
  %44 = sext i32 %43 to i64
  %45 = getelementptr inbounds i32, i32* %13, i64 %44
  %46 = load i32, i32* %45, align 4
  %47 = load i32, i32* %6, align 4
  %48 = sext i32 %47 to i64
  %49 = getelementptr inbounds i32, i32* %13, i64 %48
  %50 = load i32, i32* %49, align 4
  %51 = icmp sge i32 %46, %50
  br i1 %51, label %52, label %71

52:                                               ; preds = %42
  %53 = load i32, i32* %7, align 4
  %54 = sext i32 %53 to i64
  %55 = getelementptr inbounds i32, i32* %16, i64 %54
  %56 = load i32, i32* %55, align 4
  %57 = load i32, i32* %6, align 4
  %58 = sext i32 %57 to i64
  %59 = getelementptr inbounds i32, i32* %16, i64 %58
  %60 = load i32, i32* %59, align 4
  %61 = icmp sge i32 %56, %60
  br i1 %61, label %62, label %71

62:                                               ; preds = %52
  %63 = load i32, i32* %7, align 4
  %64 = sext i32 %63 to i64
  %65 = getelementptr inbounds i32, i32* %16, i64 %64
  %66 = load i32, i32* %65, align 4
  %67 = add nsw i32 %66, 1
  %68 = load i32, i32* %6, align 4
  %69 = sext i32 %68 to i64
  %70 = getelementptr inbounds i32, i32* %16, i64 %69
  store i32 %67, i32* %70, align 4
  br label %71

71:                                               ; preds = %62, %52, %42
  br label %72

72:                                               ; preds = %71
  %73 = load i32, i32* %7, align 4
  %74 = add nsw i32 %73, 1
  store i32 %74, i32* %7, align 4
  br label %38

75:                                               ; preds = %38
  %76 = load i32, i32* %6, align 4
  %77 = sext i32 %76 to i64
  %78 = getelementptr inbounds i32, i32* %16, i64 %77
  %79 = load i32, i32* %78, align 4
  %80 = load i32, i32* %8, align 4
  %81 = icmp sgt i32 %79, %80
  br i1 %81, label %82, label %87

82:                                               ; preds = %75
  %83 = load i32, i32* %6, align 4
  %84 = sext i32 %83 to i64
  %85 = getelementptr inbounds i32, i32* %16, i64 %84
  %86 = load i32, i32* %85, align 4
  store i32 %86, i32* %8, align 4
  br label %87

87:                                               ; preds = %82, %75
  br label %88

88:                                               ; preds = %87
  %89 = load i32, i32* %6, align 4
  %90 = add nsw i32 %89, 1
  store i32 %90, i32* %6, align 4
  br label %33

91:                                               ; preds = %33
  %92 = load i32, i32* %8, align 4
  %93 = call i32 (i8*, ...) @printf(i8* getelementptr inbounds ([3 x i8], [3 x i8]* @.str, i64 0, i64 0), i32 %92)
  %94 = load i8*, i8** %3, align 8
  call void @llvm.stackrestore(i8* %94)
  %95 = load i32, i32* %1, align 4
  ret i32 %95
}

declare dso_local i32 @__isoc99_scanf(i8*, ...) #1

; Function Attrs: nounwind
declare i8* @llvm.stacksave() #2

declare dso_local i32 @printf(i8*, ...) #1

; Function Attrs: nounwind
declare void @llvm.stackrestore(i8*) #2


!llvm.module.flags = !{!0}
!llvm.ident = !{!1}

!0 = !{i32 1, !"wchar_size", i32 4}
!1 = !{!"clang version 10.0.0-4ubuntu1 "}
